target datalayout = "e-m:e-p270:32:32-p271:32:32-p272:64:64-i64:64-i128:128-f80:128-n8:16:32:64-S128"
target triple = "x86_64-pc-linux-gnu"

%class.HotSpotCompiledCodeStream = type { ptr, ptr, ptr, i8, %class.objArrayHandle, ptr, ptr, ptr }
%class.objArrayHandle = type { %class.Handle }
%class.Handle = type { ptr }
%class.GrowableArrayBase = type { i32, i32 }
%class.GrowableArrayView = type { %class.GrowableArrayBase, ptr }

@.str = private unnamed_addr constant [47 x i8] c"src/hotspot/share/jvmci/jvmciCodeInstaller.cpp\00", align 1
@.str.23 = private unnamed_addr constant [64 x i8] c"virtual object id %d read outside scope of decoding DebugInfo%s\00", align 1
@.str.24 = private unnamed_addr constant [31 x i8] c"invalid virtual object id %d%s\00", align 1

; Function Attrs: mustprogress nounwind uwtable
define linkonce_odr hidden noundef nonnull align 8 dereferenceable(8) ptr @_ZN17GrowableArrayViewIP10ScopeValueE2atEi(ptr noundef nonnull align 8 dereferenceable(16) %0, i32 noundef %1) #1 comdat align 2 {
  %3 = alloca ptr, align 8
  %4 = alloca i32, align 4
  store ptr %0, ptr %3, align 8
  store i32 %1, ptr %4, align 4
  %5 = load ptr, ptr %3, align 8
  %6 = getelementptr inbounds %class.GrowableArrayView, ptr %5, i32 0, i32 1
  %7 = load ptr, ptr %6, align 8
  %8 = load i32, ptr %4, align 4
  %9 = sext i32 %8 to i64
  %10 = getelementptr inbounds ptr, ptr %7, i64 %9
  ret ptr %10
}

; Function Attrs: mustprogress nounwind uwtable
define linkonce_odr hidden noundef i32 @_ZNK17GrowableArrayBase6lengthEv(ptr noundef nonnull align 4 dereferenceable(8) %0) #1 comdat align 2 {
  %2 = alloca ptr, align 8
  store ptr %0, ptr %2, align 8
  %3 = load ptr, ptr %2, align 8
  %4 = getelementptr inbounds %class.GrowableArrayBase, ptr %3, i32 0, i32 0
  %5 = load i32, ptr %4, align 4
  ret i32 %5
}

; Function Attrs: mustprogress nounwind uwtable
define hidden noundef ptr @_ZNK25HotSpotCompiledCodeStream17virtual_object_atEiP8JVMCIEnv(ptr noundef nonnull align 8 dereferenceable(64) %0, i32 noundef %1, ptr noundef %2) #1 align 2 {
  %4 = alloca ptr, align 8
  %5 = alloca ptr, align 8
  %6 = alloca i32, align 4
  %7 = alloca ptr, align 8
  store ptr %0, ptr %5, align 8
  store i32 %1, ptr %6, align 4
  store ptr %2, ptr %7, align 8
  %8 = load ptr, ptr %5, align 8
  %9 = getelementptr inbounds %class.HotSpotCompiledCodeStream, ptr %8, i32 0, i32 6
  %10 = load ptr, ptr %9, align 8
  %11 = icmp eq ptr %10, null
  br i1 %11, label %12, label %16

12:                                               ; preds = %3
  %13 = load ptr, ptr %7, align 8
  %14 = load i32, ptr %6, align 4
  %15 = call noundef ptr @_ZNK25HotSpotCompiledCodeStream7contextEv(ptr noundef nonnull align 8 dereferenceable(64) %8)
  call void (ptr, ptr, i32, ptr, ...) @_ZN8JVMCIEnv12fthrow_errorEPKciS1_z(ptr noundef nonnull align 8 dereferenceable(64) %13, ptr noundef @.str, i32 noundef 195, ptr noundef @.str.23, i32 noundef %14, ptr noundef %15)
  store ptr null, ptr %4, align 8
  br label %35

16:                                               ; preds = %3
  %17 = load i32, ptr %6, align 4
  %18 = icmp slt i32 %17, 0
  br i1 %18, label %25, label %19

19:                                               ; preds = %16
  %20 = load i32, ptr %6, align 4
  %21 = getelementptr inbounds %class.HotSpotCompiledCodeStream, ptr %8, i32 0, i32 6
  %22 = load ptr, ptr %21, align 8
  %23 = call noundef i32 @_ZNK17GrowableArrayBase6lengthEv(ptr noundef nonnull align 4 dereferenceable(8) %22)
  %24 = icmp sge i32 %20, %23
  br i1 %24, label %25, label %29

25:                                               ; preds = %19, %16
  %26 = load ptr, ptr %7, align 8
  %27 = load i32, ptr %6, align 4
  %28 = call noundef ptr @_ZNK25HotSpotCompiledCodeStream7contextEv(ptr noundef nonnull align 8 dereferenceable(64) %8)
  call void (ptr, ptr, i32, ptr, ...) @_ZN8JVMCIEnv12fthrow_errorEPKciS1_z(ptr noundef nonnull align 8 dereferenceable(64) %26, ptr noundef @.str, i32 noundef 198, ptr noundef @.str.24, i32 noundef %27, ptr noundef %28)
  store ptr null, ptr %4, align 8
  br label %35

29:                                               ; preds = %19
  %30 = getelementptr inbounds %class.HotSpotCompiledCodeStream, ptr %8, i32 0, i32 6
  %31 = load ptr, ptr %30, align 8
  %32 = load i32, ptr %6, align 4
  %33 = call noundef nonnull align 8 dereferenceable(8) ptr @_ZN17GrowableArrayViewIP10ScopeValueE2atEi(ptr noundef nonnull align 8 dereferenceable(16) %31, i32 noundef %32)
  %34 = load ptr, ptr %33, align 8
  store ptr %34, ptr %4, align 8
  br label %35

35:                                               ; preds = %29, %25, %12
  %36 = load ptr, ptr %4, align 8
  ret ptr %36
}