; Function Attrs: mustprogress nounwind uwtable
define hidden noundef ptr @_ZNK25HotSpotCompiledCodeStream17virtual_object_atEiP8JVMCIEnv(ptr nocapture noundef nonnull readonly align 8 dereferenceable(64) %0, i32 noundef %1, ptr noundef %2) local_unnamed_addr #2 align 2 {
  %4 = getelementptr inbounds i8, ptr %0, i64 48
  %5 = load ptr, ptr %4, align 8
  %6 = icmp eq ptr %5, null
  br i1 %6, label %7, label %9

7:                                                ; preds = %3
  %8 = tail call noundef ptr @_ZNK25HotSpotCompiledCodeStream7contextEv(ptr noundef nonnull align 8 dereferenceable(64) %0)
  tail call void (ptr, ptr, i32, ptr, ...) @_ZN8JVMCIEnv12fthrow_errorEPKciS1_z(ptr noundef nonnull align 8 dereferenceable(64) %2, ptr noundef nonnull @.str, i32 noundef 195, ptr noundef nonnull @.str.23, i32 noundef %1, ptr noundef %8) #10
  br label %21

9:                                                ; preds = %3
  %10 = icmp slt i32 %1, 0
  br i1 %10, label %13, label %11

11:                                               ; preds = %9
  %12 = load i32, ptr %5, align 4
  %.not = icmp sgt i32 %12, %1
  br i1 %.not, label %15, label %13

13:                                               ; preds = %11, %9
  %14 = tail call noundef ptr @_ZNK25HotSpotCompiledCodeStream7contextEv(ptr noundef nonnull align 8 dereferenceable(64) %0)
  tail call void (ptr, ptr, i32, ptr, ...) @_ZN8JVMCIEnv12fthrow_errorEPKciS1_z(ptr noundef nonnull align 8 dereferenceable(64) %2, ptr noundef nonnull @.str, i32 noundef 198, ptr noundef nonnull @.str.24, i32 noundef %1, ptr noundef %14) #10
  br label %21

15:                                               ; preds = %11
  %16 = getelementptr inbounds i8, ptr %5, i64 8
  %17 = load ptr, ptr %16, align 8
  %18 = zext nneg i32 %1 to i64
  %19 = getelementptr inbounds ptr, ptr %17, i64 %18
  %20 = load ptr, ptr %19, align 8
  br label %21

21:                                               ; preds = %15, %13, %7
  %.0 = phi ptr [ null, %7 ], [ null, %13 ], [ %20, %15 ]
  ret ptr %.0
}